; Function Attrs: nounwind uwtable
define ptr @l_Lean_Elab_Tactic_GuardExpr_evalGuardHyp___lambda__2___boxed(ptr noundef %0, ptr noundef %1, ptr noundef %2, ptr noundef %3, ptr noundef %4, ptr noundef %5, ptr noundef %6, ptr noundef %7, ptr noundef %8, ptr noundef %9, ptr noundef %10, ptr noundef %11, ptr noundef %12, ptr noundef %13, ptr noundef %14) local_unnamed_addr #0 {
  %16 = tail call ptr @l_Lean_Elab_Tactic_GuardExpr_evalGuardHyp___lambda__2(ptr noundef %0, ptr noundef %1, ptr noundef %2, ptr noundef %3, ptr noundef %4, ptr noundef %5, ptr noundef %6, ptr noundef %7, ptr noundef %8, ptr noundef %9, ptr noundef %10, ptr noundef %11, ptr noundef %12, ptr noundef %13, ptr noundef %14)
  %17 = ptrtoint ptr %5 to i64
  %18 = and i64 %17, 1
  %.not = icmp eq i64 %18, 0
  br i1 %.not, label %19, label %lean_dec.exit

19:                                               ; preds = %15
  %20 = load i32, ptr %5, align 4, !tbaa !8
  %21 = icmp sgt i32 %20, 1
  br i1 %21, label %22, label %24, !prof !11

22:                                               ; preds = %19
  %23 = add nsw i32 %20, -1
  store i32 %23, ptr %5, align 4, !tbaa !8
  br label %lean_dec.exit

24:                                               ; preds = %19
  %.not.i = icmp eq i32 %20, 0
  br i1 %.not.i, label %lean_dec.exit, label %25

25:                                               ; preds = %24
  tail call void @lean_dec_ref_cold(ptr noundef nonnull %5) #4
  br label %lean_dec.exit

lean_dec.exit:                                    ; preds = %25, %24, %22, %15
  ret ptr %16
}